target datalayout = "e-m:e-p270:32:32-p271:32:32-p272:64:64-i64:64-i128:128-f80:128-n8:16:32:64-S128"
target triple = "x86_64-pc-linux-gnu"

%struct._object = type { %union.anon, ptr }
%union.anon = type { i64 }
%struct._typeobject = type { %struct.PyVarObject, ptr, i64, i64, ptr, i64, ptr, ptr, ptr, ptr, ptr, ptr, ptr, ptr, ptr, ptr, ptr, ptr, ptr, i64, ptr, ptr, ptr, ptr, i64, ptr, ptr, ptr, ptr, ptr, ptr, ptr, ptr, ptr, i64, ptr, ptr, ptr, ptr, ptr, ptr, ptr, ptr, ptr, ptr, ptr, i32, ptr, ptr, i8, i16 }
%struct.PyVarObject = type { %struct._object, i64 }
%struct.PyGetSetDef = type { ptr, ptr, ptr, ptr, ptr }
%struct.anon = type { i32, i32 }

; Function Attrs: alwaysinline nounwind uwtable
define internal i32 @_Py_IsImmortal(ptr noundef %0) #4 {
  %2 = alloca ptr, align 8
  store ptr %0, ptr %2, align 8, !tbaa !7
  %3 = load ptr, ptr %2, align 8, !tbaa !7
  %4 = getelementptr inbounds nuw %struct._object, ptr %3, i32 0, i32 0
  %5 = getelementptr inbounds nuw %struct.anon, ptr %4, i32 0, i32 0
  %6 = load i32, ptr %5, align 8, !tbaa !20
  %7 = icmp slt i32 %6, 0
  %8 = zext i1 %7 to i32
  ret i32 %8
}

; Function Attrs: alwaysinline nounwind uwtable
define internal void @Py_DECREF(ptr noundef %0) #4 {
  %2 = alloca ptr, align 8
  store ptr %0, ptr %2, align 8, !tbaa !7
  %3 = load ptr, ptr %2, align 8, !tbaa !7
  %4 = call i32 @_Py_IsImmortal(ptr noundef %3)
  %5 = icmp ne i32 %4, 0
  br i1 %5, label %6, label %7

6:                                                ; preds = %1
  br label %16

7:                                                ; preds = %1
  %8 = load ptr, ptr %2, align 8, !tbaa !7
  %9 = getelementptr inbounds nuw %struct._object, ptr %8, i32 0, i32 0
  %10 = getelementptr inbounds nuw %struct.anon, ptr %9, i32 0, i32 0
  %11 = load i32, ptr %10, align 8, !tbaa !20
  %12 = add i32 %11, -1
  store i32 %12, ptr %10, align 8, !tbaa !20
  %13 = icmp eq i32 %12, 0
  br i1 %13, label %14, label %16

14:                                               ; preds = %7
  %15 = load ptr, ptr %2, align 8, !tbaa !7
  call void @_Py_Dealloc(ptr noundef %15)
  br label %16

16:                                               ; preds = %6, %14, %7
  ret void
}

; Function Attrs: nounwind uwtable
define internal i32 @add_getset(ptr noundef %0, ptr noundef %1) #0 {
  %3 = alloca i32, align 4
  %4 = alloca ptr, align 8
  %5 = alloca ptr, align 8
  %6 = alloca ptr, align 8
  %7 = alloca ptr, align 8
  %8 = alloca i32, align 4
  store ptr %0, ptr %4, align 8, !tbaa !50
  store ptr %1, ptr %5, align 8, !tbaa !170
  call void @llvm.lifetime.start.p0(i64 8, ptr %6) #9
  %9 = load ptr, ptr %4, align 8, !tbaa !50
  %10 = getelementptr inbounds nuw %struct._typeobject, ptr %9, i32 0, i32 31
  %11 = load ptr, ptr %10, align 8, !tbaa !171
  store ptr %11, ptr %6, align 8, !tbaa !7
  br label %12

12:                                               ; preds = %39, %2
  %13 = load ptr, ptr %5, align 8, !tbaa !170
  %14 = getelementptr inbounds nuw %struct.PyGetSetDef, ptr %13, i32 0, i32 0
  %15 = load ptr, ptr %14, align 8, !tbaa !172
  %16 = icmp ne ptr %15, null
  br i1 %16, label %17, label %42

17:                                               ; preds = %12
  call void @llvm.lifetime.start.p0(i64 8, ptr %7) #9
  %18 = load ptr, ptr %4, align 8, !tbaa !50
  %19 = load ptr, ptr %5, align 8, !tbaa !170
  %20 = call ptr @PyDescr_NewGetSet(ptr noundef %18, ptr noundef %19)
  store ptr %20, ptr %7, align 8, !tbaa !7
  %21 = load ptr, ptr %7, align 8, !tbaa !7
  %22 = icmp eq ptr %21, null
  br i1 %22, label %23, label %24

23:                                               ; preds = %17
  store i32 -1, ptr %3, align 4
  store i32 1, ptr %8, align 4
  br label %36

24:                                               ; preds = %17
  %25 = load ptr, ptr %6, align 8, !tbaa !7
  %26 = load ptr, ptr %5, align 8, !tbaa !170
  %27 = getelementptr inbounds nuw %struct.PyGetSetDef, ptr %26, i32 0, i32 0
  %28 = load ptr, ptr %27, align 8, !tbaa !172
  %29 = load ptr, ptr %7, align 8, !tbaa !7
  %30 = call i32 @PyDict_SetItemString(ptr noundef %25, ptr noundef %28, ptr noundef %29)
  %31 = icmp slt i32 %30, 0
  br i1 %31, label %32, label %34

32:                                               ; preds = %24
  %33 = load ptr, ptr %7, align 8, !tbaa !7
  call void @Py_DECREF(ptr noundef %33)
  store i32 -1, ptr %3, align 4
  store i32 1, ptr %8, align 4
  br label %36

34:                                               ; preds = %24
  %35 = load ptr, ptr %7, align 8, !tbaa !7
  call void @Py_DECREF(ptr noundef %35)
  store i32 0, ptr %8, align 4
  br label %36

36:                                               ; preds = %34, %32, %23
  call void @llvm.lifetime.end.p0(i64 8, ptr %7) #9
  %37 = load i32, ptr %8, align 4
  switch i32 %37, label %43 [
    i32 0, label %38
  ]

38:                                               ; preds = %36
  br label %39

39:                                               ; preds = %38
  %40 = load ptr, ptr %5, align 8, !tbaa !170
  %41 = getelementptr %struct.PyGetSetDef, ptr %40, i32 1
  store ptr %41, ptr %5, align 8, !tbaa !170
  br label %12, !llvm.loop !174

42:                                               ; preds = %12
  store i32 0, ptr %3, align 4
  store i32 1, ptr %8, align 4
  br label %43

43:                                               ; preds = %42, %36
  call void @llvm.lifetime.end.p0(i64 8, ptr %6) #9
  %44 = load i32, ptr %3, align 4
  ret i32 %44
}