; Function Attrs: nounwind uwtable
define internal fastcc range(i32 -1, 1) i32 @add_getset(ptr noundef %0, ptr noundef %1) unnamed_addr #0 {
  %3 = getelementptr inbounds nuw i8, ptr %0, i64 264
  %4 = load ptr, ptr %3, align 8, !tbaa !152
  %5 = load ptr, ptr %1, align 8, !tbaa !153
  %.not15 = icmp eq ptr %5, null
  br i1 %.not15, label %.critedge, label %.lr.ph

6:                                                ; preds = %Py_DECREF.exit
  %7 = getelementptr i8, ptr %.01316, i64 40
  %8 = load ptr, ptr %7, align 8, !tbaa !153
  %.not = icmp eq ptr %8, null
  br i1 %.not, label %.critedge, label %.lr.ph, !llvm.loop !155

.lr.ph:                                           ; preds = %2, %6
  %.01316 = phi ptr [ %7, %6 ], [ %1, %2 ]
  %9 = tail call ptr @PyDescr_NewGetSet(ptr noundef %0, ptr noundef nonnull %.01316) #17
  %10 = icmp eq ptr %9, null
  br i1 %10, label %.critedge, label %11

11:                                               ; preds = %.lr.ph
  %12 = load ptr, ptr %.01316, align 8, !tbaa !153
  %13 = tail call i32 @PyDict_SetItemString(ptr noundef %4, ptr noundef %12, ptr noundef nonnull %9) #17
  %14 = icmp sgt i32 %13, -1
  %15 = load i32, ptr %9, align 8, !tbaa !23
  %.not.i = icmp sgt i32 %15, -1
  br i1 %.not.i, label %16, label %Py_DECREF.exit

16:                                               ; preds = %11
  %17 = add nsw i32 %15, -1
  store i32 %17, ptr %9, align 8, !tbaa !23
  %18 = icmp eq i32 %17, 0
  br i1 %18, label %19, label %Py_DECREF.exit

19:                                               ; preds = %16
  tail call void @_Py_Dealloc(ptr noundef nonnull %9) #17
  br label %Py_DECREF.exit

Py_DECREF.exit:                                   ; preds = %11, %16, %19
  br i1 %14, label %6, label %.critedge

.critedge:                                        ; preds = %Py_DECREF.exit, %6, %.lr.ph, %2
  %.2 = phi i32 [ 0, %2 ], [ -1, %.lr.ph ], [ 0, %6 ], [ -1, %Py_DECREF.exit ]
  ret i32 %.2
}